******************************************************************************
             TMS320C2000 Linker PC v5.2.11                     
******************************************************************************
>> Linked Tue Jan 08 10:17:01 2013

OUTPUT FILE NAME:   <./Debug/HiMECS_Main_DSP.out>
ENTRY POINT SYMBOL: "_c_int00"  address: 0000d5f5


MEMORY CONFIGURATION

         name            origin    length      used     unused   attr    fill
----------------------  --------  ---------  --------  --------  ----  --------
PAGE 0:
  BEGIN                 00000000   00000002  00000002  00000000  RWIX
  RAMM0                 00000050   000003b0  00000000  000003b0  RWIX
  RAML                  00008000   00006800  00005c0e  00000bf2  RWIX
  CSM_RSVD              0033ff80   00000076  00000000  00000076  RWIX
  CSM_PWL               0033fff8   00000008  00000000  00000008  RWIX
  ADC_CAL               00380080   00000009  00000007  00000002  RWIX
  IQTABLES              003fe000   00000b50  00000000  00000b50  RWIX
  IQTABLES2             003feb50   0000008c  00000000  0000008c  RWIX
  FPUTABLES             003febdc   000006a0  00000000  000006a0  RWIX
  BOOTROM               003ff27c   00000d44  00000000  00000d44  RWIX
  RESET                 003fffc0   00000002  00000000  00000002  RWIX

PAGE 1:
  BOOT_RSVD             00000002   0000004e  00000000  0000004e  RWIX
  RAMM1                 00000400   00000400  00000400  00000000  RWIX
  DEV_EMU               00000880   00000180  000000d0  000000b0  RWIX
  FLASH_REGS            00000a80   00000060  00000008  00000058  RWIX
  CSM                   00000ae0   00000010  00000010  00000000  RWIX
  ADC_MIRROR            00000b00   00000010  00000010  00000000  RWIX
  XINTF                 00000b20   00000020  0000001e  00000002  RWIX
  CPU_TIMER0            00000c00   00000008  00000008  00000000  RWIX
  CPU_TIMER1            00000c08   00000008  00000008  00000000  RWIX
  CPU_TIMER2            00000c10   00000008  00000008  00000000  RWIX
  PIE_CTRL              00000ce0   00000020  0000001a  00000006  RWIX
  PIE_VECT              00000d00   00000100  00000100  00000000  RWIX
  DMA                   00001000   00000200  000000e0  00000120  RWIX
  MCBSPA                00005000   00000040  00000025  0000001b  RWIX
  MCBSPB                00005040   00000040  00000025  0000001b  RWIX
  ECANA                 00006000   00000040  00000034  0000000c  RWIX
  ECANA_LAM             00006040   00000040  00000040  00000000  RWIX
  ECANA_MOTS            00006080   00000040  00000040  00000000  RWIX
  ECANA_MOTO            000060c0   00000040  00000040  00000000  RWIX
  ECANA_MBOX            00006100   00000100  00000100  00000000  RWIX
  ECANB                 00006200   00000040  00000034  0000000c  RWIX
  ECANB_LAM             00006240   00000040  00000040  00000000  RWIX
  ECANB_MOTS            00006280   00000040  00000040  00000000  RWIX
  ECANB_MOTO            000062c0   00000040  00000040  00000000  RWIX
  ECANB_MBOX            00006300   00000100  00000100  00000000  RWIX
  EPWM1                 00006800   00000022  00000022  00000000  RWIX
  EPWM2                 00006840   00000022  00000022  00000000  RWIX
  EPWM3                 00006880   00000022  00000022  00000000  RWIX
  EPWM4                 000068c0   00000022  00000022  00000000  RWIX
  EPWM5                 00006900   00000022  00000022  00000000  RWIX
  EPWM6                 00006940   00000022  00000022  00000000  RWIX
  ECAP1                 00006a00   00000020  00000020  00000000  RWIX
  ECAP2                 00006a20   00000020  00000020  00000000  RWIX
  ECAP3                 00006a40   00000020  00000020  00000000  RWIX
  ECAP4                 00006a60   00000020  00000020  00000000  RWIX
  ECAP5                 00006a80   00000020  00000020  00000000  RWIX
  ECAP6                 00006aa0   00000020  00000020  00000000  RWIX
  EQEP1                 00006b00   00000040  00000040  00000000  RWIX
  EQEP2                 00006b40   00000040  00000040  00000000  RWIX
  GPIOCTRL              00006f80   00000040  0000002e  00000012  RWIX
  GPIODAT               00006fc0   00000020  00000020  00000000  RWIX
  GPIOINT               00006fe0   00000020  0000000a  00000016  RWIX
  SYSTEM                00007010   00000020  00000020  00000000  RWIX
  SPIA                  00007040   00000010  00000010  00000000  RWIX
  SCIA                  00007050   00000010  00000010  00000000  RWIX
  XINTRUPT              00007070   00000010  00000010  00000000  RWIX
  ADC                   00007100   00000020  0000001e  00000002  RWIX
  SCIB                  00007750   00000010  00000010  00000000  RWIX
  SCIC                  00007770   00000010  00000010  00000000  RWIX
  I2CA                  00007900   00000040  00000022  0000001e  RWIX
  RAML4                 0000e800   00001800  000016e6  0000011a  RWIX
  FRAML                 00140000   00040000  000004f0  0003fb10  RWIX
  FRAMH                 00180000   00040000  00000000  00040000  RWIX
  CSM_PWL               0033fff8   00000008  00000008  00000000  RWIX
  PARTID                00380090   00000001  00000001  00000000  RWIX


SECTION ALLOCATION MAP

 output                                  attributes/
section   page    origin      length       input sections
--------  ----  ----------  ----------   ----------------
codestart 
*          0    00000000    00000002     
                  00000000    00000002     DSP2833x_CodeStartBranch.obj (codestart)

.pinit     0    00008000    00000000     UNINITIALIZED

.text      0    00008000    0000595f     
                  00008000    000032fa     Main_DSP_main.obj (.text)
                  0000b2fa    0000095f     rts2800_fpu32.lib : _printfi.obj (.text)
                  0000bc59    00000409     Main_DSP_Sensor_Monitor.obj (.text)
                  0000c062    00000316     DSP2833x_DefaultIsr.obj (.text)
                  0000c378    000002aa     Main_DSP_Analog_Input.obj (.text)
                  0000c622    000001ba     Main_DSP_RTC.obj (.text)
                  0000c7dc    000001a7     Main_DSP_BIT.obj (.text)
                  0000c983    00000179     Main_DSP_Debug_SCI.obj (.text)
                  0000cafc    0000012e     TMR.obj (.text)
                  0000cc2a    00000123     Main_DSP_Modbus.obj (.text)
                  0000cd4d    0000011a     Main_DSP_Analog_Output.obj (.text)
                  0000ce67    00000110     DSP2833x_SysCtrl.obj (.text)
                  0000cf77    00000107     rts2800_fpu32.lib : ll_div.obj (.text)
                  0000d07e    000000ea     Main_DSP_McBSP.obj (.text)
                  0000d168    000000b9     Main_DSP_External_Interface.obj (.text)
                  0000d221    000000a1     fDMC_ml.L28 : pid_reg3.obj (.text)
                  0000d2c2    0000009c     rts2800_fpu32.lib : fd_add.obj (.text)
                  0000d35e    0000008f     Main_DSP_I2C.obj (.text)
                  0000d3ed    0000008b     rts2800_fpu32.lib : fd_div.obj (.text)
                  0000d478    00000088                       : fs_div.obj (.text)
                  0000d500    00000083                       : fd_mpy.obj (.text)
                  0000d583    00000072     DSP2833x_CpuTimers.obj (.text)
                  0000d5f5    00000046     rts2800_fpu32.lib : boot.obj (.text)
                  0000d63b    0000003a     test.obj (.text)
                  0000d675    00000031     rts2800_fpu32.lib : atoi.obj (.text)
                  0000d6a6    0000002e                       : ltoa.obj (.text)
                  0000d6d4    0000002e                       : vsprintf.obj (.text)
                  0000d702    0000002a     Main_DSP_Digital_IO.obj (.text)
                  0000d72c    0000002a     rts2800_fpu32.lib : fd_cmp.obj (.text)
                  0000d756    0000002a                       : l_div.obj (.text)
                  0000d780    00000028     DSP2833x_PieCtrl.obj (.text)
                  0000d7a8    00000022     rts2800_fpu32.lib : i_div.obj (.text)
                  0000d7ca    00000021                       : fd_toi.obj (.text)
                  0000d7eb    00000021                       : memcpy_ff.obj (.text)
                  0000d80c    00000020     DSP2833x_PieVect.obj (.text)
                  0000d82c    0000001f     rts2800_fpu32.lib : fd_tol.obj (.text)
                  0000d84b    0000001e                       : ll_cmp.obj (.text)
                  0000d869    0000001c                       : fs_tofd.obj (.text)
                  0000d885    0000001c                       : l_tofd.obj (.text)
                  0000d8a1    0000001b                       : args_main.obj (.text)
                  0000d8bc    00000019                       : exit.obj (.text)
                  0000d8d5    00000014                       : ll_mpy.obj (.text)
                  0000d8e9    00000013     Main_DSP_GPIO.obj (.text)
                  0000d8fc    00000012     rts2800_fpu32.lib : memccpy.obj (.text)
                  0000d90e    0000000e                       : fd_sub.obj (.text)
                  0000d91c    0000000b                       : u_div.obj (.text)
                  0000d927    0000000a                       : strlen.obj (.text)
                  0000d931    00000009                       : _lock.obj (.text)
                  0000d93a    00000009                       : fd_neg.obj (.text)
                  0000d943    00000009                       : strcpy.obj (.text)
                  0000d94c    00000008     DSP2833x_CodeStartBranch.obj (.text)
                  0000d954    00000007     rts2800_fpu32.lib : memset.obj (.text)
                  0000d95b    00000004     DSP2833x_usDelay.obj (.text)

.cinit     0    0000d95f    000002af     
                  0000d95f    00000216     Main_DSP_main.obj (.cinit)
                  0000db75    00000068     Main_DSP_Sensor_Monitor.obj (.cinit)
                  0000dbdd    00000013     test.obj (.cinit)
                  0000dbf0    0000000a     rts2800_fpu32.lib : _lock.obj (.cinit)
                  0000dbfa    0000000a                       : exit.obj (.cinit)
                  0000dc04    00000004     Main_DSP_RTC.obj (.cinit)
                  0000dc08    00000004     TMR.obj (.cinit)
                  0000dc0c    00000002     --HOLE-- [fill = 0]

csm_rsvd   0    0033ff80    00000000     DSECT

csmpasswds 
*          0    0033fff8    00000000     DSECT

.adc_cal   0    00380080    00000007     NOLOAD SECTION
                  00380080    00000007     DSP2833x_ADC_cal.obj (.adc_cal)

.reset     0    003fffc0    00000002     DSECT
                  003fffc0    00000002     rts2800_fpu32.lib : boot.obj (.reset)

.stack     1    00000400    00000400     UNINITIALIZED
                  00000400    00000400     --HOLE--

DevEmuRegsFile 
*          1    00000880    000000d0     UNINITIALIZED
                  00000880    000000d0     DSP2833x_GlobalVariableDefs.obj (DevEmuRegsFile)

FlashRegsFile 
*          1    00000a80    00000008     UNINITIALIZED
                  00000a80    00000008     DSP2833x_GlobalVariableDefs.obj (FlashRegsFile)

CsmRegsFile 
*          1    00000ae0    00000010     UNINITIALIZED
                  00000ae0    00000010     DSP2833x_GlobalVariableDefs.obj (CsmRegsFile)

AdcMirrorFile 
*          1    00000b00    00000010     UNINITIALIZED
                  00000b00    00000010     DSP2833x_GlobalVariableDefs.obj (AdcMirrorFile)

XintfRegsFile 
*          1    00000b20    0000001e     UNINITIALIZED
                  00000b20    0000001e     DSP2833x_GlobalVariableDefs.obj (XintfRegsFile)

CpuTimer0RegsFile 
*          1    00000c00    00000008     UNINITIALIZED
                  00000c00    00000008     DSP2833x_GlobalVariableDefs.obj (CpuTimer0RegsFile)

CpuTimer1RegsFile 
*          1    00000c08    00000008     UNINITIALIZED
                  00000c08    00000008     DSP2833x_GlobalVariableDefs.obj (CpuTimer1RegsFile)

CpuTimer2RegsFile 
*          1    00000c10    00000008     UNINITIALIZED
                  00000c10    00000008     DSP2833x_GlobalVariableDefs.obj (CpuTimer2RegsFile)

PieCtrlRegsFile 
*          1    00000ce0    0000001a     UNINITIALIZED
                  00000ce0    0000001a     DSP2833x_GlobalVariableDefs.obj (PieCtrlRegsFile)

PieVectTableFile 
*          1    00000d00    00000100     UNINITIALIZED
                  00000d00    00000100     DSP2833x_GlobalVariableDefs.obj (PieVectTableFile)

DmaRegsFile 
*          1    00001000    000000e0     UNINITIALIZED
                  00001000    000000e0     DSP2833x_GlobalVariableDefs.obj (DmaRegsFile)

McbspaRegsFile 
*          1    00005000    00000025     UNINITIALIZED
                  00005000    00000025     DSP2833x_GlobalVariableDefs.obj (McbspaRegsFile)

McbspbRegsFile 
*          1    00005040    00000025     UNINITIALIZED
                  00005040    00000025     DSP2833x_GlobalVariableDefs.obj (McbspbRegsFile)

ECanaRegsFile 
*          1    00006000    00000034     UNINITIALIZED
                  00006000    00000034     DSP2833x_GlobalVariableDefs.obj (ECanaRegsFile)

ECanaLAMRegsFile 
*          1    00006040    00000040     UNINITIALIZED
                  00006040    00000040     DSP2833x_GlobalVariableDefs.obj (ECanaLAMRegsFile)

ECanaMOTSRegsFile 
*          1    00006080    00000040     UNINITIALIZED
                  00006080    00000040     DSP2833x_GlobalVariableDefs.obj (ECanaMOTSRegsFile)

ECanaMOTORegsFile 
*          1    000060c0    00000040     UNINITIALIZED
                  000060c0    00000040     DSP2833x_GlobalVariableDefs.obj (ECanaMOTORegsFile)

ECanaMboxesFile 
*          1    00006100    00000100     UNINITIALIZED
                  00006100    00000100     DSP2833x_GlobalVariableDefs.obj (ECanaMboxesFile)

ECanbRegsFile 
*          1    00006200    00000034     UNINITIALIZED
                  00006200    00000034     DSP2833x_GlobalVariableDefs.obj (ECanbRegsFile)

ECanbLAMRegsFile 
*          1    00006240    00000040     UNINITIALIZED
                  00006240    00000040     DSP2833x_GlobalVariableDefs.obj (ECanbLAMRegsFile)

ECanbMOTSRegsFile 
*          1    00006280    00000040     UNINITIALIZED
                  00006280    00000040     DSP2833x_GlobalVariableDefs.obj (ECanbMOTSRegsFile)

ECanbMOTORegsFile 
*          1    000062c0    00000040     UNINITIALIZED
                  000062c0    00000040     DSP2833x_GlobalVariableDefs.obj (ECanbMOTORegsFile)

ECanbMboxesFile 
*          1    00006300    00000100     UNINITIALIZED
                  00006300    00000100     DSP2833x_GlobalVariableDefs.obj (ECanbMboxesFile)

EPwm1RegsFile 
*          1    00006800    00000022     UNINITIALIZED
                  00006800    00000022     DSP2833x_GlobalVariableDefs.obj (EPwm1RegsFile)

EPwm2RegsFile 
*          1    00006840    00000022     UNINITIALIZED
                  00006840    00000022     DSP2833x_GlobalVariableDefs.obj (EPwm2RegsFile)

EPwm3RegsFile 
*          1    00006880    00000022     UNINITIALIZED
                  00006880    00000022     DSP2833x_GlobalVariableDefs.obj (EPwm3RegsFile)

EPwm4RegsFile 
*          1    000068c0    00000022     UNINITIALIZED
                  000068c0    00000022     DSP2833x_GlobalVariableDefs.obj (EPwm4RegsFile)

EPwm5RegsFile 
*          1    00006900    00000022     UNINITIALIZED
                  00006900    00000022     DSP2833x_GlobalVariableDefs.obj (EPwm5RegsFile)

EPwm6RegsFile 
*          1    00006940    00000022     UNINITIALIZED
                  00006940    00000022     DSP2833x_GlobalVariableDefs.obj (EPwm6RegsFile)

ECap1RegsFile 
*          1    00006a00    00000020     UNINITIALIZED
                  00006a00    00000020     DSP2833x_GlobalVariableDefs.obj (ECap1RegsFile)

ECap2RegsFile 
*          1    00006a20    00000020     UNINITIALIZED
                  00006a20    00000020     DSP2833x_GlobalVariableDefs.obj (ECap2RegsFile)

ECap3RegsFile 
*          1    00006a40    00000020     UNINITIALIZED
                  00006a40    00000020     DSP2833x_GlobalVariableDefs.obj (ECap3RegsFile)

ECap4RegsFile 
*          1    00006a60    00000020     UNINITIALIZED
                  00006a60    00000020     DSP2833x_GlobalVariableDefs.obj (ECap4RegsFile)

ECap5RegsFile 
*          1    00006a80    00000020     UNINITIALIZED
                  00006a80    00000020     DSP2833x_GlobalVariableDefs.obj (ECap5RegsFile)

ECap6RegsFile 
*          1    00006aa0    00000020     UNINITIALIZED
                  00006aa0    00000020     DSP2833x_GlobalVariableDefs.obj (ECap6RegsFile)

EQep1RegsFile 
*          1    00006b00    00000040     UNINITIALIZED
                  00006b00    00000040     DSP2833x_GlobalVariableDefs.obj (EQep1RegsFile)

EQep2RegsFile 
*          1    00006b40    00000040     UNINITIALIZED
                  00006b40    00000040     DSP2833x_GlobalVariableDefs.obj (EQep2RegsFile)

GpioCtrlRegsFile 
*          1    00006f80    0000002e     UNINITIALIZED
                  00006f80    0000002e     DSP2833x_GlobalVariableDefs.obj (GpioCtrlRegsFile)

GpioDataRegsFile 
*          1    00006fc0    00000020     UNINITIALIZED
                  00006fc0    00000020     DSP2833x_GlobalVariableDefs.obj (GpioDataRegsFile)

GpioIntRegsFile 
*          1    00006fe0    0000000a     UNINITIALIZED
                  00006fe0    0000000a     DSP2833x_GlobalVariableDefs.obj (GpioIntRegsFile)

SysCtrlRegsFile 
*          1    00007010    00000020     UNINITIALIZED
                  00007010    00000020     DSP2833x_GlobalVariableDefs.obj (SysCtrlRegsFile)

SpiaRegsFile 
*          1    00007040    00000010     UNINITIALIZED
                  00007040    00000010     DSP2833x_GlobalVariableDefs.obj (SpiaRegsFile)

SciaRegsFile 
*          1    00007050    00000010     UNINITIALIZED
                  00007050    00000010     DSP2833x_GlobalVariableDefs.obj (SciaRegsFile)

XIntruptRegsFile 
*          1    00007070    00000010     UNINITIALIZED
                  00007070    00000010     DSP2833x_GlobalVariableDefs.obj (XIntruptRegsFile)

AdcRegsFile 
*          1    00007100    0000001e     UNINITIALIZED
                  00007100    0000001e     DSP2833x_GlobalVariableDefs.obj (AdcRegsFile)

ScibRegsFile 
*          1    00007750    00000010     UNINITIALIZED
                  00007750    00000010     DSP2833x_GlobalVariableDefs.obj (ScibRegsFile)

ScicRegsFile 
*          1    00007770    00000010     UNINITIALIZED
                  00007770    00000010     DSP2833x_GlobalVariableDefs.obj (ScicRegsFile)

I2caRegsFile 
*          1    00007900    00000022     UNINITIALIZED
                  00007900    00000022     DSP2833x_GlobalVariableDefs.obj (I2caRegsFile)

.ebss      1    0000e800    0000143e     UNINITIALIZED
                  0000e800    00001000     Main_DSP_main.obj (.ebss)
                  0000f800    00000308     test.obj (.ebss)
                  0000fb08    00000018     DSP2833x_CpuTimers.obj (.ebss)
                  0000fb20    00000004     rts2800_fpu32.lib : _lock.obj (.ebss)
                  0000fb24    00000004                       : exit.obj (.ebss)
                  0000fb28    00000001     Main_DSP_RTC.obj (.ebss)
                  0000fb29    00000017     --HOLE--
                  0000fb40    000000a4     Main_DSP_Sensor_Monitor.obj (.ebss)
                  0000fbe4    0000001c     --HOLE--
                  0000fc00    0000003e     TMR.obj (.ebss)

.econst    1    0000fc3e    000002a8     
                  0000fc3e    00000101     rts2800_fpu32.lib : ctype.obj (.econst:__ctypes_)
                  0000fd3f    00000001     --HOLE-- [fill = 0]
                  0000fd40    00000100     DSP2833x_PieVect.obj (.econst)
                  0000fe40    0000006a     Main_DSP_BIT.obj (.econst:.string)
                  0000feaa    00000024     rts2800_fpu32.lib : _printfi.obj (.econst:.string)
                  0000fece    00000018                       : _printfi.obj (.econst)

FramData   1    00140000    000004f0     UNINITIALIZED
                  00140000    000004f0     Main_DSP_main.obj (FramData)

CsmPwlFile 
*          1    0033fff8    00000008     UNINITIALIZED
                  0033fff8    00000008     DSP2833x_GlobalVariableDefs.obj (CsmPwlFile)

PartIdRegsFile 
*          1    00380090    00000001     UNINITIALIZED
                  00380090    00000001     DSP2833x_GlobalVariableDefs.obj (PartIdRegsFile)


GLOBAL SYMBOLS: SORTED ALPHABETICALLY BY Name 

address    name
--------   ----
00008000   .text
0000d8bc   C$$EXIT
0000d2c2   FD$$ADD
0000d72c   FD$$CMP
0000d3ed   FD$$DIV
0000d500   FD$$MPY
0000d93a   FD$$NEG
0000d90e   FD$$SUB
0000d7ca   FD$$TOI
0000d82c   FD$$TOL
0000d478   FS$$DIV
0000d869   FS$$TOFD
0000d7a8   I$$DIV
0000d7b9   I$$MOD
0000d756   L$$DIV
0000d765   L$$MOD
0000d885   L$$TOFD
0000d84b   LL$$CMP
0000cf77   LL$$DIV
0000cfb3   LL$$MOD
0000d8d5   LL$$MPY
0000d91c   U$$DIV
0000d921   U$$MOD
0000d773   UL$$DIV
0000d77a   UL$$MOD
0000d85d   ULL$$CMP
0000cfed   ULL$$DIV
0000d01c   ULL$$MOD
0000c148   _ADCINT_ISR
0000c378   _ADC_CS
0000c4c9   _ADC_Init
0000c451   _ADC_Reg_Read
0000c3e9   _ADC_Reg_Write
0000c3bf   _ADC_Reset
0000c3a5   _ADC_Rx_Data
0000c555   _ADC_Start
0000c578   _ADC_Stop
0000c60d   _ADC_Structure_Init
0000c38c   _ADC_Tx_Data
0000c59b   _ADC_Update
00380080   _ADC_cal
000097ab   _AI_Update
00008359   _AO_Update
00000b00   _AdcMirror
00007100   _AdcRegs
0000a1ba   _Calculate_Anticipator_Bias
0000a34a   _Calculate_Anticipator_Duration
0000a4da   _Calculate_KickDownTime
0000ea40   _Calculated_temp
0000e8b8   _Calculated_time
000086e6   _CheckLoad
0000a174   _Check_Anticipator
0000a57c   _Check_Process
00009932   _Check_StartBlock
0000a55f   _Check_State
0000d5ba   _ConfigCpuTimer
0000e850   _Control_flag
0000ae49   _CopyFlash
0000fb18   _CpuTimer0
00000c00   _CpuTimer0Regs
0000fb08   _CpuTimer1
00000c08   _CpuTimer1Regs
0000fb10   _CpuTimer2
00000c10   _CpuTimer2Regs
0000e8c2   _Crank_angle
0033fff8   _CsmPwl
00000ae0   _CsmRegs
0000cf46   _CsmUnlock
0000cd4d   _DAC_CS
0000cd95   _DAC_Init
0000cdd3   _DAC_Out
0000ce43   _DAC_Out_mA
0000cd66   _DAC_Trigger
0000cd7e   _DAC_Tx_Data
0000c076   _DATALOG_ISR
0000c26a   _DINTCH1_ISR
0000c274   _DINTCH2_ISR
0000c27e   _DINTCH3_ISR
0000c288   _DINTCH4_ISR
0000c292   _DINTCH5_ISR
0000c29c   _DINTCH6_ISR
000099c8   _DI_Process
0000d702   _DI_Update
0000d717   _DO_Update
00008171   _DPDownCan
00008145   _DPDownSub
00008029   _DPDownTCP
000082f7   _DPUpSlave
00008195   _DPUpTcp
0000817d   _DP_Clear
0000d95b   _DSP28x_usDelay
0000c9e2   _Debug_SCI_FIFO_Init
0000c983   _Debug_SCI_GPIO_Init
0000ca0a   _Debug_SCI_Init
0000caa1   _Debug_SCI_Interrupt_Init
0000c999   _Debug_SCI_Reg_Init
0000ca3a   _Debug_SCI_Rx
0000ca4e   _Debug_SCI_Rx_ISR
0000ca41   _Debug_SCI_Tx
00000880   _DevEmuRegs
0000ce95   _DisableDog
00001000   _DmaRegs
0000c2f6   _ECAN0INTA_ISR
0000c30a   _ECAN0INTB_ISR
0000c300   _ECAN1INTA_ISR
0000c314   _ECAN1INTB_ISR
0000c1de   _ECAP1_INT_ISR
0000c1e8   _ECAP2_INT_ISR
0000c1f2   _ECAP3_INT_ISR
0000c1fc   _ECAP4_INT_ISR
0000c206   _ECAP5_INT_ISR
0000c210   _ECAP6_INT_ISR
00006040   _ECanaLAMRegs
000060c0   _ECanaMOTORegs
00006080   _ECanaMOTSRegs
00006100   _ECanaMboxes
00006000   _ECanaRegs
00006240   _ECanbLAMRegs
000062c0   _ECanbMOTORegs
00006280   _ECanbMOTSRegs
00006300   _ECanbMboxes
00006200   _ECanbRegs
00006a00   _ECap1Regs
00006a20   _ECap2Regs
00006a40   _ECap3Regs
00006a60   _ECap4Regs
00006a80   _ECap5Regs
00006aa0   _ECap6Regs
0000e837   _EFI_All_Control_Time
0000e84d   _EFI_CMD_Data
0000e839   _EFI_CMD_Time
0000e964   _EFI_Off_Control_Time
0000e980   _EFI_On_Control_Time
0000c08a   _EMUINT_ISR
0000c1a2   _EPWM1_INT_ISR
0000c166   _EPWM1_TZINT_ISR
0000c1ac   _EPWM2_INT_ISR
0000c170   _EPWM2_TZINT_ISR
0000c1b6   _EPWM3_INT_ISR
0000c17a   _EPWM3_TZINT_ISR
0000c1c0   _EPWM4_INT_ISR
0000c184   _EPWM4_TZINT_ISR
0000c1ca   _EPWM5_INT_ISR
0000c18e   _EPWM5_TZINT_ISR
0000c1d4   _EPWM6_INT_ISR
0000c198   _EPWM6_TZINT_ISR
00006800   _EPwm1Regs
00006840   _EPwm2Regs
00006880   _EPwm3Regs
000068c0   _EPwm4Regs
00006900   _EPwm5Regs
00006940   _EPwm6Regs
0000c21a   _EQEP1_INT_ISR
0000c224   _EQEP2_INT_ISR
00006b00   _EQep1Regs
00006b40   _EQep2Regs
0000d79f   _EnableInterrupts
00008713   _ErrorCheckAI
00008391   _ErrorCheckDI
00008372   _ErrorCoding
0000837f   _ErrorDecoding
000098f4   _ExhaustGasVent
0000d1c7   _External_Interface_GPIO_Init
0000d168   _External_Interface_Init
0000c6c0   _FM31L278_ModeRTC
0000c6e5   _FM31L278_ReadByte
0000c646   _FM31L278_ReadRTC
0000c67c   _FM31L278_ReadRTCs
0000c6ef   _FM31L278_WriteByte
0000c622   _FM31L278_WriteRTC
00140000   _FlashNumber
0000aec9   _FlashRead
00000a80   _FlashRegs
0000af4c   _FlashWrite
0000e840   _Flywheel_ISR_SAME_status
0000e8bc   _Flywheel_M_ISR_Count
0000e8be   _Flywheel_M_ISR_Count_before
0000be16   _Flywheel_Major_ISR
0000fb54   _Flywheel_R_ISR_Count
0000bfe8   _Flywheel_Redundancy_ISR
0000d8e9   _GPIO_Init
0000e8c6   _Gain_node
0000e8f0   _Gain_range_X_D
0000e8e7   _Gain_range_X_I
0000e8de   _Gain_range_X_P
0000e900   _Gain_range_Y_D
0000e909   _Gain_range_Y_I
0000e8d5   _Gain_range_Y_P
000097ee   _GasLeakageTest
00006f80   _GpioCtrlRegs
00006fc0   _GpioDataRegs
00006fe0   _GpioIntRegs
0000e84e   _HeartBeat
0000c2a6   _I2CINT1A_ISR
0000c2b0   _I2CINT2A_ISR
00007900   _I2caRegs
0000c09e   _ILLEGAL_ISR
0000c062   _INT13_ISR
0000c06c   _INT14_ISR
0000d583   _InitCpuTimers
0000ce70   _InitFlash
0000ceeb   _InitPeripheralClocks
0000d780   _InitPieCtrl
0000d80c   _InitPieVectTable
0000ce9d   _InitPll
0000ce67   _InitSysCtrl
0000d35e   _Init_I2CA
0000e82d   _KickDownTime
0000c35a   _LUF_ISR
0000c350   _LVF_ISR
0000e835   _Lead_EFI_Time
0000e841   _LoadDeviation
0000c256   _MRINTA_ISR
0000c242   _MRINTB_ISR
0000c260   _MXINTA_ISR
0000c24c   _MXINTB_ISR
0000d8f7   _M_DSP_RUN_LED_Toggle
0000b27c   _Main_DSP_Init
0000e84c   _Main_LoopCount
0000b045   _Main_Parameter_Init
0000e83a   _Main_di1
0000e836   _Main_di2
0000e84f   _Main_do1
0000e84b   _Main_do2
0000d07e   _McBSP_A_GPIO_Init
0000d11e   _McBSP_A_Rx_Data
0000d117   _McBSP_A_Tx_Data
0000d09d   _McBSP_B_GPIO_Init
0000d13d   _McBSP_B_Rx_Data
0000d136   _McBSP_B_Tx_Data
0000d0b3   _McBSP_Init_SPI
0000d152   _McBSP_delay_loop
00005000   _McbspaRegs
00005040   _McbspbRegs
0000e83f   _Measured_Load
0000e842   _Measured_Load_Old
0000e8b0   _Measured_Speed
0000e8ae   _Measured_Speed_temp
00008017   _MemClear
00008000   _MemCopy
0000c7de   _Memory_BIT
0000c91c   _Memory_Count_Test
0000c901   _Memory_Save_Count
0000cc8f   _Modbus_FIFO_Init
0000cc2a   _Modbus_GPIO_Init
0000ccb7   _Modbus_Init
0000cd3e   _Modbus_Interrupt_Init
0000cc46   _Modbus_Reg_Init
0000ccc2   _Modbus_Rx
0000ccf7   _Modbus_Rx_ISR
0000ccd6   _Modbus_Tx
0000ccc9   _Modbus_Tx_byte
0000fb46   _Moving_average_factor
0000fb4b   _Moving_average_ready
0000c094   _NMI_ISR
0000e849   _No_of_cylinder
0000a9ec   _PID_Calculate
0000aab4   _PID_Calculate_Sogav
0000c364   _PIE_RESERVED
0000e98c   _Padding_Time
0000ab3f   _Parameter_Reset
00380090   _PartIdRegs
0000e8ac   _Period_time_b1
0000e80e   _Phase_Count
0000e848   _Phase_Count_Old
0000fb5c   _Phase_M_ISR_Count
0000bdd0   _Phase_Major_ISR
0000fb56   _Phase_R_ISR_Count
0000bdea   _Phase_Redundancy_ISR
00000ce0   _PieCtrlRegs
00000d00   _PieVectTable
0000fd40   _PieVectTableInit
0000c941   _Print_Memory_Error
0000cab0   _Printf
0000e8ba   _Q11
0000e888   _Q12
0000e886   _Q21
0000e88c   _Q22
0000c7d0   _RTC_Init
0000e807   _RTC_Write
0000c080   _RTOSINT_ISR
0000d3b2   _Read_I2C_Data
0000c6fa   _Read_RTC
0000c2ce   _SCIRXINTA_ISR
0000c2e2   _SCIRXINTB_ISR
0000c2ba   _SCIRXINTC_ISR
0000c2d8   _SCITXINTA_ISR
0000c2ec   _SCITXINTB_ISR
0000c2c4   _SCITXINTC_ISR
0000c120   _SEQ1INT_ISR
0000c12a   _SEQ2INT_ISR
0000fb64   _SOGAV_M_ISR_CLOSE_Count
0000fb62   _SOGAV_M_ISR_OPEN_Count
0000e812   _SOGAV_No_of_cal_end
0000e82b   _SOGAV_No_of_cal_start
0000e8b4   _SOGAV_duration
0000ea18   _SOGAV_end_angle
0000e926   _SOGAV_end_index
0000e940   _SOGAV_end_order
0000ea00   _SOGAV_start_angle
0000e932   _SOGAV_start_index
0000e94c   _SOGAV_start_order
0000acae   _SOGAV_time_calculate
0000c22e   _SPIRXINTA_ISR
0000c238   _SPITXINTA_ISR
0000d63b   _SaveLogData
00007050   _SciaRegs
00007750   _ScibRegs
00007770   _ScicRegs
0000bc59   _Sensor_Monitor_GPIO_Init
0000c058   _Sensor_Monitor_Init
0000c021   _Sensor_Monitor_Interrupt_Init
0000ce8b   _ServiceDog
0000ac5e   _Set_SOGAV_command
0000e87a   _Set_SOGAV_command_count
0000e80a   _Set_SOGAV_status
0000ad6b   _SogavTimer
0000fb60   _Speed_Average
0000e8a6   _Speed_Command
0000e8a4   _Speed_Command_Delta
0000be00   _Speed_INT_ISR
0000fb5a   _Speed_INT_ISR_Count
0000e8b2   _Speed_Reference
00007040   _SpiaRegs
00009e9a   _State_Backup
00009a74   _State_Diesel
00009c80   _State_DieselGas
0000e838   _SubDOCmd
0000e845   _SubHealth
0000e831   _SubID
00007010   _SysCtrlRegs
0000c7dc   _System_Hold
0000fb4e   _TDC_M_ISR_Count
0000bd78   _TDC_Major_ISR
0000fb50   _TDC_R_ISR_Count
0000bdba   _TDC_Redundancy_ISR
0000e847   _TDC_start_flag
0000c152   _TINT0_ISR
0000ab83   _TestLEDOff
0000ab78   _TestLEDOn
0000ab8e   _TestLEDToggle
0000e86e   _Test_Count
0000e851   _Test_value
0000e85c   _Timer0TickCount
0000ad37   _Timer0_ISR
0000e85e   _Timer1TickCount
0000ad57   _Timer1_ISR
0000e858   _Tmr0TimeOutCnt
0000b1f4   _Tmr0TimeOutFnct
0000e85a   _Tmr1TimeOutCnt
0000b23e   _Tmr1TimeOutFnct
0000e864   _Tmr2TimeOutCnt
0000b26b   _Tmr2TimeOutFnct
0000cafc   _TmrCfgFnct
0000cb13   _TmrChk
0000cb25   _TmrInit
0000cb59   _TmrReset
0000cb6b   _TmrSetMST
0000cb8a   _TmrSetT
0000cbab   _TmrStart
0000cbba   _TmrStop
0000cbc8   _TmrTask
0000fc02   _TmrTbl
0000c102   _USER10_ISR
0000c10c   _USER11_ISR
0000c116   _USER12_ISR
0000c0a8   _USER1_ISR
0000c0b2   _USER2_ISR
0000c0bc   _USER3_ISR
0000c0c6   _USER4_ISR
0000c0d0   _USER5_ISR
0000c0da   _USER6_ISR
0000c0e4   _USER7_ISR
0000c0ee   _USER8_ISR
0000c0f8   _USER9_ISR
0000a8ae   _Update_Gain
0000e892   _Updated_D_Gain
0000e8a2   _Updated_I_Gain
0000e89e   _Updated_P_Gain
000098c3   _Ventilation
0000c15c   _WAKEINT_ISR
0000d387   _Write_I2C_Data
0000c744   _Write_RTC
0000c134   _XINT1_ISR
0000c13e   _XINT2_ISR
0000c31e   _XINT3_ISR
0000c328   _XINT4_ISR
0000c332   _XINT5_ISR
0000c33c   _XINT6_ISR
0000c346   _XINT7_ISR
0000bd3e   _XINT_Reg_Init
00007070   _XIntruptRegs
00000b20   _XintfRegs
00000800   __STACK_END
00000400   __STACK_SIZE
00000001   __TI_args_main
ffffffff   ___binit__
ffffffff   ___c_args__
0000d95f   ___cinit__
0000d95f   ___etext__
0000d7eb   ___memcpy_ff
ffffffff   ___pinit__
00008000   ___text__
0000d8a1   __args_main
0000fb24   __cleanup_ptr
0000fc3e   __ctypes_
0000fb26   __dtors_ptr
0000fb22   __lock
0000d939   __nop
0000bb53   __printfi
0000d935   __register_lock
0000d931   __register_unlock
00000400   __stack
0000fb20   __unlock
0000d8bc   _abort
0000e83d   _actual_x
0000e83c   _actual_y
0000d675   _atoi
0000e852   _bAnticipator
0000e855   _bAnticipatorIndex
0000e815   _bExhaustGasVentilation
0000e82f   _bFlashWrite
0000e80c   _bGasLeakageTestMode
0000e808   _bGasLeakageTestResult
0000e843   _bPID_Enable
0000e844   _bPID_Timer
0000e856   _bTimer1
0000e80b   _bVentilationMode
0000d5f5   _c_int00
0000e818   _cal_i
0000e817   _cal_j
0000e8aa   _control_value
0000e8a8   _control_value_old
0000e8c0   _delta_theta
0000bcbc   _eCAP_Reg_Init
0000d8be   _exit
0000eb80   _fDA_Data
0000e874   _fDroop
0000e870   _fGasPressure
0000e86a   _fGasPressureOld
0000e878   _fK1
0000e872   _fK2
0000e876   _fK_constant
0000e86c   _fOverspeed_Setting
0000e868   _fTestValue
0000e894   _fTmpD
0000e896   _fTmpI
0000e898   _fTmpKc
0000e890   _fTmpP
0000fb40   _flag
0000e829   _flag_Alarm
0000e832   _flag_GasTrip
0000e82a   _flag_KickDown
0000e82c   _flag_ShuntDown
0000e827   _flag_StartBlock
0000e802   _flag_search_gain
0000f940   _g_testBuffer0
0000f840   _g_testBuffer1
0000fa40   _g_testBuffer2
0000f800   _g_testBufferIndex
0000fb47   _i
0000e823   _iReadCount
0000e81f   _iReadCount2808
0000e833   _iReadCountSlave
0000e811   _iStartFailCnt
0000e814   _iTestValue
0000e826   _iWriteCount
0000e81a   _iWriteCount2808
0000e830   _iWriteCountSlave
0000fb42   _index1
0000fb4c   _index2
0000e820   _isDPDown
0000e824   _isDPDown2808
0000e81c   _isDPDownSlave
0000e821   _isDPUp
0000e819   _isDPUp2808
0000e81d   _isDPUpSlave
0000fb48   _j
0000e860   _lpcnt
0000d6a6   _ltoa
0000e9d4   _mPid
0000aba2   _main
0000d8fc   _memccpy
0000d954   _memset
0000e8b6   _open_angle
0000e866   _p_Speed
0000e862   _p_address
0000eb00   _pid1_Engine
0000eb40   _pid_Sogav
0000d221   _pid_reg3_calc
0000fb58   _real_speed
0000c36e   _rsvd_ISR
0000ecc0   _s_ADC_In
0000e81e   _s_BIT_Info
0000e9e8   _s_DAC
0000ee80   _s_Debug_buffer
0000e8ca   _s_Main_DIO
0000ed80   _s_Modbus_buffer
0000e8ce   _s_RTC
0000a5cd   _search_gain
0000fb45   _size
0000f0c0   _stGasPressureGain
00140280   _stGasPressureGainFlash
0000f200   _stGovernorGain
001403c0   _stGovernorGainFlash
0000e91c   _stPidGainSet
0000e912   _stPidGainSetFlash
0000e998   _stSetup
0014000d   _stSetupFlash
0000ea80   _stSogavFlag
0000ebc0   _stSpeed
00140040   _stSpeedFlash
0000f4c0   _st_ADC_Value
0000ea9a   _st_AOSetupC1
0014001d   _st_AOSetupC1Flash
0000ef80   _st_AlarmSetup
0000ec40   _st_AlarmSetupC1_Can
001400c0   _st_AlarmSetupC1_CanFlash
0000e958   _st_AlarmSetupC1_Sub
00140001   _st_AlarmSetupC1_SubFlash
00140140   _st_AlarmSetupFlash
0000e9a8   _st_C1CanFeedback
0000ea58   _st_C1Feedback
0000eac0   _st_C1SubFeedback
0000f340   _st_DI_Value
0000e970   _st_EngineCmdParameter
0000fb44   _status_phase_m
0000fb80   _store_speed
0000d943   _strcpy
0000d927   _strlen
0000fb66   _sub_speed
0000fc00   _t0_cnt
0000e884   _temp1
0000e89c   _temp2
0000e89a   _temp3
0000e8a0   _temp4
0000fb5e   _temp_speed
0000fb52   _temp_sub_speed
0000fb41   _test
0000fb43   _test_count_1
0000fb4a   _test_count_2
0000e8c4   _theta_zero_modify
0000e82e   _uReadStatus
0000e81b   _u_AD_DA_Ctrl
0000e822   _ui10msTimer
0000e846   _uiAnticipatorBias
0000e83e   _uiAnticipatorDuration
0000e825   _uiCheckProcess
0000e83b   _uiCmd
0000e816   _uiCmdOutCh
0000e828   _uiCurrentLoad
0000e84a   _uiDeviceID
0000e80d   _uiEFIValue
0000e854   _uiEngineMode
0000e801   _uiEngineReady
0000e800   _uiEngineStart
0000e806   _uiErrBit
0000e803   _uiErrGrp
0000e9c0   _uiErrorReg
0000e80f   _uiFuelMode
0000e834   _uiHealthCAN
0000e805   _uiLocalOpmode
0000e813   _uiOperationMode
0000e853   _uiSubMode
0000e809   _uiTestCh
0000e810   _uiTestFlag
0000e804   _uiVelocityMode
0000d6d4   _vsprintf
0000e88e   _x1
0000e88a   _x2
0000e882   _x_value
0000e87c   _y1
0000e87e   _y2
0000e880   _y_value
0000fb49   _z
ffffffff   binit
0000d95f   cinit
00000000   code_start
0000d95f   etext
ffffffff   pinit


GLOBAL SYMBOLS: SORTED BY Symbol Address 

address    name
--------   ----
00000000   code_start
00000001   __TI_args_main
00000400   __STACK_SIZE
00000400   __stack
00000800   __STACK_END
00000880   _DevEmuRegs
00000a80   _FlashRegs
00000ae0   _CsmRegs
00000b00   _AdcMirror
00000b20   _XintfRegs
00000c00   _CpuTimer0Regs
00000c08   _CpuTimer1Regs
00000c10   _CpuTimer2Regs
00000ce0   _PieCtrlRegs
00000d00   _PieVectTable
00001000   _DmaRegs
00005000   _McbspaRegs
00005040   _McbspbRegs
00006000   _ECanaRegs
00006040   _ECanaLAMRegs
00006080   _ECanaMOTSRegs
000060c0   _ECanaMOTORegs
00006100   _ECanaMboxes
00006200   _ECanbRegs
00006240   _ECanbLAMRegs
00006280   _ECanbMOTSRegs
000062c0   _ECanbMOTORegs
00006300   _ECanbMboxes
00006800   _EPwm1Regs
00006840   _EPwm2Regs
00006880   _EPwm3Regs
000068c0   _EPwm4Regs
00006900   _EPwm5Regs
00006940   _EPwm6Regs
00006a00   _ECap1Regs
00006a20   _ECap2Regs
00006a40   _ECap3Regs
00006a60   _ECap4Regs
00006a80   _ECap5Regs
00006aa0   _ECap6Regs
00006b00   _EQep1Regs
00006b40   _EQep2Regs
00006f80   _GpioCtrlRegs
00006fc0   _GpioDataRegs
00006fe0   _GpioIntRegs
00007010   _SysCtrlRegs
00007040   _SpiaRegs
00007050   _SciaRegs
00007070   _XIntruptRegs
00007100   _AdcRegs
00007750   _ScibRegs
00007770   _ScicRegs
00007900   _I2caRegs
00008000   .text
00008000   _MemCopy
00008000   ___text__
00008017   _MemClear
00008029   _DPDownTCP
00008145   _DPDownSub
00008171   _DPDownCan
0000817d   _DP_Clear
00008195   _DPUpTcp
000082f7   _DPUpSlave
00008359   _AO_Update
00008372   _ErrorCoding
0000837f   _ErrorDecoding
00008391   _ErrorCheckDI
000086e6   _CheckLoad
00008713   _ErrorCheckAI
000097ab   _AI_Update
000097ee   _GasLeakageTest
000098c3   _Ventilation
000098f4   _ExhaustGasVent
00009932   _Check_StartBlock
000099c8   _DI_Process
00009a74   _State_Diesel
00009c80   _State_DieselGas
00009e9a   _State_Backup
0000a174   _Check_Anticipator
0000a1ba   _Calculate_Anticipator_Bias
0000a34a   _Calculate_Anticipator_Duration
0000a4da   _Calculate_KickDownTime
0000a55f   _Check_State
0000a57c   _Check_Process
0000a5cd   _search_gain
0000a8ae   _Update_Gain
0000a9ec   _PID_Calculate
0000aab4   _PID_Calculate_Sogav
0000ab3f   _Parameter_Reset
0000ab78   _TestLEDOn
0000ab83   _TestLEDOff
0000ab8e   _TestLEDToggle
0000aba2   _main
0000ac5e   _Set_SOGAV_command
0000acae   _SOGAV_time_calculate
0000ad37   _Timer0_ISR
0000ad57   _Timer1_ISR
0000ad6b   _SogavTimer
0000ae49   _CopyFlash
0000aec9   _FlashRead
0000af4c   _FlashWrite
0000b045   _Main_Parameter_Init
0000b1f4   _Tmr0TimeOutFnct
0000b23e   _Tmr1TimeOutFnct
0000b26b   _Tmr2TimeOutFnct
0000b27c   _Main_DSP_Init
0000bb53   __printfi
0000bc59   _Sensor_Monitor_GPIO_Init
0000bcbc   _eCAP_Reg_Init
0000bd3e   _XINT_Reg_Init
0000bd78   _TDC_Major_ISR
0000bdba   _TDC_Redundancy_ISR
0000bdd0   _Phase_Major_ISR
0000bdea   _Phase_Redundancy_ISR
0000be00   _Speed_INT_ISR
0000be16   _Flywheel_Major_ISR
0000bfe8   _Flywheel_Redundancy_ISR
0000c021   _Sensor_Monitor_Interrupt_Init
0000c058   _Sensor_Monitor_Init
0000c062   _INT13_ISR
0000c06c   _INT14_ISR
0000c076   _DATALOG_ISR
0000c080   _RTOSINT_ISR
0000c08a   _EMUINT_ISR
0000c094   _NMI_ISR
0000c09e   _ILLEGAL_ISR
0000c0a8   _USER1_ISR
0000c0b2   _USER2_ISR
0000c0bc   _USER3_ISR
0000c0c6   _USER4_ISR
0000c0d0   _USER5_ISR
0000c0da   _USER6_ISR
0000c0e4   _USER7_ISR
0000c0ee   _USER8_ISR
0000c0f8   _USER9_ISR
0000c102   _USER10_ISR
0000c10c   _USER11_ISR
0000c116   _USER12_ISR
0000c120   _SEQ1INT_ISR
0000c12a   _SEQ2INT_ISR
0000c134   _XINT1_ISR
0000c13e   _XINT2_ISR
0000c148   _ADCINT_ISR
0000c152   _TINT0_ISR
0000c15c   _WAKEINT_ISR
0000c166   _EPWM1_TZINT_ISR
0000c170   _EPWM2_TZINT_ISR
0000c17a   _EPWM3_TZINT_ISR
0000c184   _EPWM4_TZINT_ISR
0000c18e   _EPWM5_TZINT_ISR
0000c198   _EPWM6_TZINT_ISR
0000c1a2   _EPWM1_INT_ISR
0000c1ac   _EPWM2_INT_ISR
0000c1b6   _EPWM3_INT_ISR
0000c1c0   _EPWM4_INT_ISR
0000c1ca   _EPWM5_INT_ISR
0000c1d4   _EPWM6_INT_ISR
0000c1de   _ECAP1_INT_ISR
0000c1e8   _ECAP2_INT_ISR
0000c1f2   _ECAP3_INT_ISR
0000c1fc   _ECAP4_INT_ISR
0000c206   _ECAP5_INT_ISR
0000c210   _ECAP6_INT_ISR
0000c21a   _EQEP1_INT_ISR
0000c224   _EQEP2_INT_ISR
0000c22e   _SPIRXINTA_ISR
0000c238   _SPITXINTA_ISR
0000c242   _MRINTB_ISR
0000c24c   _MXINTB_ISR
0000c256   _MRINTA_ISR
0000c260   _MXINTA_ISR
0000c26a   _DINTCH1_ISR
0000c274   _DINTCH2_ISR
0000c27e   _DINTCH3_ISR
0000c288   _DINTCH4_ISR
0000c292   _DINTCH5_ISR
0000c29c   _DINTCH6_ISR
0000c2a6   _I2CINT1A_ISR
0000c2b0   _I2CINT2A_ISR
0000c2ba   _SCIRXINTC_ISR
0000c2c4   _SCITXINTC_ISR
0000c2ce   _SCIRXINTA_ISR
0000c2d8   _SCITXINTA_ISR
0000c2e2   _SCIRXINTB_ISR
0000c2ec   _SCITXINTB_ISR
0000c2f6   _ECAN0INTA_ISR
0000c300   _ECAN1INTA_ISR
0000c30a   _ECAN0INTB_ISR
0000c314   _ECAN1INTB_ISR
0000c31e   _XINT3_ISR
0000c328   _XINT4_ISR
0000c332   _XINT5_ISR
0000c33c   _XINT6_ISR
0000c346   _XINT7_ISR
0000c350   _LVF_ISR
0000c35a   _LUF_ISR
0000c364   _PIE_RESERVED
0000c36e   _rsvd_ISR
0000c378   _ADC_CS
0000c38c   _ADC_Tx_Data
0000c3a5   _ADC_Rx_Data
0000c3bf   _ADC_Reset
0000c3e9   _ADC_Reg_Write
0000c451   _ADC_Reg_Read
0000c4c9   _ADC_Init
0000c555   _ADC_Start
0000c578   _ADC_Stop
0000c59b   _ADC_Update
0000c60d   _ADC_Structure_Init
0000c622   _FM31L278_WriteRTC
0000c646   _FM31L278_ReadRTC
0000c67c   _FM31L278_ReadRTCs
0000c6c0   _FM31L278_ModeRTC
0000c6e5   _FM31L278_ReadByte
0000c6ef   _FM31L278_WriteByte
0000c6fa   _Read_RTC
0000c744   _Write_RTC
0000c7d0   _RTC_Init
0000c7dc   _System_Hold
0000c7de   _Memory_BIT
0000c901   _Memory_Save_Count
0000c91c   _Memory_Count_Test
0000c941   _Print_Memory_Error
0000c983   _Debug_SCI_GPIO_Init
0000c999   _Debug_SCI_Reg_Init
0000c9e2   _Debug_SCI_FIFO_Init
0000ca0a   _Debug_SCI_Init
0000ca3a   _Debug_SCI_Rx
0000ca41   _Debug_SCI_Tx
0000ca4e   _Debug_SCI_Rx_ISR
0000caa1   _Debug_SCI_Interrupt_Init
0000cab0   _Printf
0000cafc   _TmrCfgFnct
0000cb13   _TmrChk
0000cb25   _TmrInit
0000cb59   _TmrReset
0000cb6b   _TmrSetMST
0000cb8a   _TmrSetT
0000cbab   _TmrStart
0000cbba   _TmrStop
0000cbc8   _TmrTask
0000cc2a   _Modbus_GPIO_Init
0000cc46   _Modbus_Reg_Init
0000cc8f   _Modbus_FIFO_Init
0000ccb7   _Modbus_Init
0000ccc2   _Modbus_Rx
0000ccc9   _Modbus_Tx_byte
0000ccd6   _Modbus_Tx
0000ccf7   _Modbus_Rx_ISR
0000cd3e   _Modbus_Interrupt_Init
0000cd4d   _DAC_CS
0000cd66   _DAC_Trigger
0000cd7e   _DAC_Tx_Data
0000cd95   _DAC_Init
0000cdd3   _DAC_Out
0000ce43   _DAC_Out_mA
0000ce67   _InitSysCtrl
0000ce70   _InitFlash
0000ce8b   _ServiceDog
0000ce95   _DisableDog
0000ce9d   _InitPll
0000ceeb   _InitPeripheralClocks
0000cf46   _CsmUnlock
0000cf77   LL$$DIV
0000cfb3   LL$$MOD
0000cfed   ULL$$DIV
0000d01c   ULL$$MOD
0000d07e   _McBSP_A_GPIO_Init
0000d09d   _McBSP_B_GPIO_Init
0000d0b3   _McBSP_Init_SPI
0000d117   _McBSP_A_Tx_Data
0000d11e   _McBSP_A_Rx_Data
0000d136   _McBSP_B_Tx_Data
0000d13d   _McBSP_B_Rx_Data
0000d152   _McBSP_delay_loop
0000d168   _External_Interface_Init
0000d1c7   _External_Interface_GPIO_Init
0000d221   _pid_reg3_calc
0000d2c2   FD$$ADD
0000d35e   _Init_I2CA
0000d387   _Write_I2C_Data
0000d3b2   _Read_I2C_Data
0000d3ed   FD$$DIV
0000d478   FS$$DIV
0000d500   FD$$MPY
0000d583   _InitCpuTimers
0000d5ba   _ConfigCpuTimer
0000d5f5   _c_int00
0000d63b   _SaveLogData
0000d675   _atoi
0000d6a6   _ltoa
0000d6d4   _vsprintf
0000d702   _DI_Update
0000d717   _DO_Update
0000d72c   FD$$CMP
0000d756   L$$DIV
0000d765   L$$MOD
0000d773   UL$$DIV
0000d77a   UL$$MOD
0000d780   _InitPieCtrl
0000d79f   _EnableInterrupts
0000d7a8   I$$DIV
0000d7b9   I$$MOD
0000d7ca   FD$$TOI
0000d7eb   ___memcpy_ff
0000d80c   _InitPieVectTable
0000d82c   FD$$TOL
0000d84b   LL$$CMP
0000d85d   ULL$$CMP
0000d869   FS$$TOFD
0000d885   L$$TOFD
0000d8a1   __args_main
0000d8bc   C$$EXIT
0000d8bc   _abort
0000d8be   _exit
0000d8d5   LL$$MPY
0000d8e9   _GPIO_Init
0000d8f7   _M_DSP_RUN_LED_Toggle
0000d8fc   _memccpy
0000d90e   FD$$SUB
0000d91c   U$$DIV
0000d921   U$$MOD
0000d927   _strlen
0000d931   __register_unlock
0000d935   __register_lock
0000d939   __nop
0000d93a   FD$$NEG
0000d943   _strcpy
0000d954   _memset
0000d95b   _DSP28x_usDelay
0000d95f   ___cinit__
0000d95f   ___etext__
0000d95f   cinit
0000d95f   etext
0000e800   _uiEngineStart
0000e801   _uiEngineReady
0000e802   _flag_search_gain
0000e803   _uiErrGrp
0000e804   _uiVelocityMode
0000e805   _uiLocalOpmode
0000e806   _uiErrBit
0000e807   _RTC_Write
0000e808   _bGasLeakageTestResult
0000e809   _uiTestCh
0000e80a   _Set_SOGAV_status
0000e80b   _bVentilationMode
0000e80c   _bGasLeakageTestMode
0000e80d   _uiEFIValue
0000e80e   _Phase_Count
0000e80f   _uiFuelMode
0000e810   _uiTestFlag
0000e811   _iStartFailCnt
0000e812   _SOGAV_No_of_cal_end
0000e813   _uiOperationMode
0000e814   _iTestValue
0000e815   _bExhaustGasVentilation
0000e816   _uiCmdOutCh
0000e817   _cal_j
0000e818   _cal_i
0000e819   _isDPUp2808
0000e81a   _iWriteCount2808
0000e81b   _u_AD_DA_Ctrl
0000e81c   _isDPDownSlave
0000e81d   _isDPUpSlave
0000e81e   _s_BIT_Info
0000e81f   _iReadCount2808
0000e820   _isDPDown
0000e821   _isDPUp
0000e822   _ui10msTimer
0000e823   _iReadCount
0000e824   _isDPDown2808
0000e825   _uiCheckProcess
0000e826   _iWriteCount
0000e827   _flag_StartBlock
0000e828   _uiCurrentLoad
0000e829   _flag_Alarm
0000e82a   _flag_KickDown
0000e82b   _SOGAV_No_of_cal_start
0000e82c   _flag_ShuntDown
0000e82d   _KickDownTime
0000e82e   _uReadStatus
0000e82f   _bFlashWrite
0000e830   _iWriteCountSlave
0000e831   _SubID
0000e832   _flag_GasTrip
0000e833   _iReadCountSlave
0000e834   _uiHealthCAN
0000e835   _Lead_EFI_Time
0000e836   _Main_di2
0000e837   _EFI_All_Control_Time
0000e838   _SubDOCmd
0000e839   _EFI_CMD_Time
0000e83a   _Main_di1
0000e83b   _uiCmd
0000e83c   _actual_y
0000e83d   _actual_x
0000e83e   _uiAnticipatorDuration
0000e83f   _Measured_Load
0000e840   _Flywheel_ISR_SAME_status
0000e841   _LoadDeviation
0000e842   _Measured_Load_Old
0000e843   _bPID_Enable
0000e844   _bPID_Timer
0000e845   _SubHealth
0000e846   _uiAnticipatorBias
0000e847   _TDC_start_flag
0000e848   _Phase_Count_Old
0000e849   _No_of_cylinder
0000e84a   _uiDeviceID
0000e84b   _Main_do2
0000e84c   _Main_LoopCount
0000e84d   _EFI_CMD_Data
0000e84e   _HeartBeat
0000e84f   _Main_do1
0000e850   _Control_flag
0000e851   _Test_value
0000e852   _bAnticipator
0000e853   _uiSubMode
0000e854   _uiEngineMode
0000e855   _bAnticipatorIndex
0000e856   _bTimer1
0000e858   _Tmr0TimeOutCnt
0000e85a   _Tmr1TimeOutCnt
0000e85c   _Timer0TickCount
0000e85e   _Timer1TickCount
0000e860   _lpcnt
0000e862   _p_address
0000e864   _Tmr2TimeOutCnt
0000e866   _p_Speed
0000e868   _fTestValue
0000e86a   _fGasPressureOld
0000e86c   _fOverspeed_Setting
0000e86e   _Test_Count
0000e870   _fGasPressure
0000e872   _fK2
0000e874   _fDroop
0000e876   _fK_constant
0000e878   _fK1
0000e87a   _Set_SOGAV_command_count
0000e87c   _y1
0000e87e   _y2
0000e880   _y_value
0000e882   _x_value
0000e884   _temp1
0000e886   _Q21
0000e888   _Q12
0000e88a   _x2
0000e88c   _Q22
0000e88e   _x1
0000e890   _fTmpP
0000e892   _Updated_D_Gain
0000e894   _fTmpD
0000e896   _fTmpI
0000e898   _fTmpKc
0000e89a   _temp3
0000e89c   _temp2
0000e89e   _Updated_P_Gain
0000e8a0   _temp4
0000e8a2   _Updated_I_Gain
0000e8a4   _Speed_Command_Delta
0000e8a6   _Speed_Command
0000e8a8   _control_value_old
0000e8aa   _control_value
0000e8ac   _Period_time_b1
0000e8ae   _Measured_Speed_temp
0000e8b0   _Measured_Speed
0000e8b2   _Speed_Reference
0000e8b4   _SOGAV_duration
0000e8b6   _open_angle
0000e8b8   _Calculated_time
0000e8ba   _Q11
0000e8bc   _Flywheel_M_ISR_Count
0000e8be   _Flywheel_M_ISR_Count_before
0000e8c0   _delta_theta
0000e8c2   _Crank_angle
0000e8c4   _theta_zero_modify
0000e8c6   _Gain_node
0000e8ca   _s_Main_DIO
0000e8ce   _s_RTC
0000e8d5   _Gain_range_Y_P
0000e8de   _Gain_range_X_P
0000e8e7   _Gain_range_X_I
0000e8f0   _Gain_range_X_D
0000e900   _Gain_range_Y_D
0000e909   _Gain_range_Y_I
0000e912   _stPidGainSetFlash
0000e91c   _stPidGainSet
0000e926   _SOGAV_end_index
0000e932   _SOGAV_start_index
0000e940   _SOGAV_end_order
0000e94c   _SOGAV_start_order
0000e958   _st_AlarmSetupC1_Sub
0000e964   _EFI_Off_Control_Time
0000e970   _st_EngineCmdParameter
0000e980   _EFI_On_Control_Time
0000e98c   _Padding_Time
0000e998   _stSetup
0000e9a8   _st_C1CanFeedback
0000e9c0   _uiErrorReg
0000e9d4   _mPid
0000e9e8   _s_DAC
0000ea00   _SOGAV_start_angle
0000ea18   _SOGAV_end_angle
0000ea40   _Calculated_temp
0000ea58   _st_C1Feedback
0000ea80   _stSogavFlag
0000ea9a   _st_AOSetupC1
0000eac0   _st_C1SubFeedback
0000eb00   _pid1_Engine
0000eb40   _pid_Sogav
0000eb80   _fDA_Data
0000ebc0   _stSpeed
0000ec40   _st_AlarmSetupC1_Can
0000ecc0   _s_ADC_In
0000ed80   _s_Modbus_buffer
0000ee80   _s_Debug_buffer
0000ef80   _st_AlarmSetup
0000f0c0   _stGasPressureGain
0000f200   _stGovernorGain
0000f340   _st_DI_Value
0000f4c0   _st_ADC_Value
0000f800   _g_testBufferIndex
0000f840   _g_testBuffer1
0000f940   _g_testBuffer0
0000fa40   _g_testBuffer2
0000fb08   _CpuTimer1
0000fb10   _CpuTimer2
0000fb18   _CpuTimer0
0000fb20   __unlock
0000fb22   __lock
0000fb24   __cleanup_ptr
0000fb26   __dtors_ptr
0000fb40   _flag
0000fb41   _test
0000fb42   _index1
0000fb43   _test_count_1
0000fb44   _status_phase_m
0000fb45   _size
0000fb46   _Moving_average_factor
0000fb47   _i
0000fb48   _j
0000fb49   _z
0000fb4a   _test_count_2
0000fb4b   _Moving_average_ready
0000fb4c   _index2
0000fb4e   _TDC_M_ISR_Count
0000fb50   _TDC_R_ISR_Count
0000fb52   _temp_sub_speed
0000fb54   _Flywheel_R_ISR_Count
0000fb56   _Phase_R_ISR_Count
0000fb58   _real_speed
0000fb5a   _Speed_INT_ISR_Count
0000fb5c   _Phase_M_ISR_Count
0000fb5e   _temp_speed
0000fb60   _Speed_Average
0000fb62   _SOGAV_M_ISR_OPEN_Count
0000fb64   _SOGAV_M_ISR_CLOSE_Count
0000fb66   _sub_speed
0000fb80   _store_speed
0000fc00   _t0_cnt
0000fc02   _TmrTbl
0000fc3e   __ctypes_
0000fd40   _PieVectTableInit
00140000   _FlashNumber
00140001   _st_AlarmSetupC1_SubFlash
0014000d   _stSetupFlash
0014001d   _st_AOSetupC1Flash
00140040   _stSpeedFlash
001400c0   _st_AlarmSetupC1_CanFlash
00140140   _st_AlarmSetupFlash
00140280   _stGasPressureGainFlash
001403c0   _stGovernorGainFlash
0033fff8   _CsmPwl
00380080   _ADC_cal
00380090   _PartIdRegs
ffffffff   ___binit__
ffffffff   ___c_args__
ffffffff   ___pinit__
ffffffff   binit
ffffffff   pinit

[580 symbols]
